; Function Attrs: nounwind sspstrong uwtable
define internal i64 @inspect_enum_chain(i64 noundef %0, i64 %1, i32 noundef %2) #0 {
  %4 = tail call i64 @rb_obj_class(i64 noundef %0) #18
  %5 = tail call ptr @rb_check_typeddata(i64 noundef %0, ptr noundef nonnull @enum_chain_data_type) #18
  %.not = icmp eq ptr %5, null
  br i1 %.not, label %9, label %6

6:                                                ; preds = %3
  %7 = load i64, ptr %5, align 8, !tbaa !62
  %8 = icmp eq i64 %7, 36
  br i1 %8, label %9, label %12

9:                                                ; preds = %6, %3
  %10 = tail call i64 @rb_class_path(i64 noundef %4) #18
  %11 = tail call i64 (ptr, ...) @rb_sprintf(ptr noundef nonnull @.str.111, i64 noundef %10) #18
  br label %19

12:                                               ; preds = %6
  %.not10 = icmp eq i32 %2, 0
  %13 = tail call i64 @rb_class_path(i64 noundef %4) #18
  br i1 %.not10, label %16, label %14

14:                                               ; preds = %12
  %15 = tail call i64 (ptr, ...) @rb_sprintf(ptr noundef nonnull @.str.112, i64 noundef %13) #18
  br label %19

16:                                               ; preds = %12
  %17 = load i64, ptr %5, align 8, !tbaa !62
  %18 = tail call i64 (ptr, ...) @rb_sprintf(ptr noundef nonnull @.str.113, i64 noundef %13, i64 noundef %17) #18
  br label %19

19:                                               ; preds = %16, %14, %9
  %.0 = phi i64 [ %11, %9 ], [ %15, %14 ], [ %18, %16 ]
  ret i64 %.0
}